Certificate:
    Data:
        Version: 3 (0x2)
        Serial Number: 2539 (0x9eb)
        Signature Algorithm: sha1WithRSAEncryption
        Issuer: C=US, ST=NY, L=New York, O=Bloomberg LP, OU=CTO Office, CN=Bloomberg LP CA/emailAddress=open-tech@bloomberg.net
        Validity
            Not Before: Jan 15 06:00:00 2015 GMT
            Not After : Jan 21 06:00:00 2015 GMT
        Subject: C=US, ST=NY, L=New York, O=Bloomberg LP, OU=CTO Office, CN=mhacks_spring_2015_117/emailAddress=open-tech@bloomberg.net
        Subject Public Key Info:
            Public Key Algorithm: rsaEncryption
            RSA Public Key: (1024 bit)
                Modulus (1024 bit):
                    00:c4:68:e6:59:23:4a:0c:de:85:4b:6e:4d:1a:61:
                    c5:25:e0:67:59:8b:ab:b5:2d:de:45:25:08:b5:27:
                    20:49:7e:08:d0:53:18:3b:07:ec:62:cf:db:26:9f:
                    2e:61:9b:f0:16:5b:65:a3:8a:bf:99:ca:d8:20:87:
                    03:67:e3:df:d7:fb:69:05:21:9b:a4:c8:9f:93:6a:
                    e2:18:74:0f:37:28:59:9c:ec:fa:98:54:94:31:a1:
                    8d:04:4b:7e:c5:b0:f4:f1:08:7e:ea:ce:b1:2a:a8:
                    59:2d:c7:96:39:63:67:2b:83:05:14:ee:cd:33:29:
                    6d:91:aa:2f:fd:ca:bf:8f:07
                Exponent: 65537 (0x10001)
        X509v3 extensions:
            X509v3 Basic Constraints: 
                CA:FALSE
            Netscape Comment: 
                Easy-RSA Generated Certificate
            X509v3 Subject Key Identifier: 
                C9:E5:9A:C5:23:E7:F2:A8:99:66:C9:B7:3F:11:EC:53:BF:B7:01:82
            X509v3 Authority Key Identifier: 
                keyid:F3:21:76:1F:DA:B5:E7:03:FC:ED:D7:71:B8:1C:55:2D:7E:65:5F:14
                DirName:/C=US/ST=NY/L=New York/O=Bloomberg LP/OU=CTO Office/CN=Bloomberg LP CA/emailAddress=open-tech@bloomberg.net
                serial:81:F3:7A:1C:BC:C6:E8:A2

            X509v3 Extended Key Usage: 
                TLS Web Client Authentication
            X509v3 Key Usage: 
                Digital Signature
    Signature Algorithm: sha1WithRSAEncryption
        75:8e:11:e8:85:d0:df:5c:da:6d:77:fb:fa:1a:1f:03:37:2b:
        1f:9f:3e:95:b6:83:fe:47:fb:04:5a:d3:50:d7:14:3e:a0:64:
        d9:1a:ed:55:9d:11:75:61:c9:da:d5:f4:51:7a:88:55:58:21:
        66:56:f2:d2:80:08:6f:1b:7a:6a:2e:3c:2f:dc:f2:84:88:d2:
        8c:3d:ee:9c:be:15:6a:88:f6:2e:a7:05:8b:e1:b3:ba:97:7d:
        a9:13:d5:78:8f:4c:a7:42:b3:a8:0b:f6:79:a6:fe:41:87:21:
        cd:5d:68:72:79:b5:2c:06:23:e8:ad:2b:b5:db:1c:e3:76:53:
        2a:1a
-----BEGIN CERTIFICATE-----
MIIECjCCA3OgAwIBAgICCeswDQYJKoZIhvcNAQEFBQAwgZsxCzAJBgNVBAYTAlVT
MQswCQYDVQQIEwJOWTERMA8GA1UEBxMITmV3IFlvcmsxFTATBgNVBAoTDEJsb29t
YmVyZyBMUDETMBEGA1UECxMKQ1RPIE9mZmljZTEYMBYGA1UEAxMPQmxvb21iZXJn
IExQIENBMSYwJAYJKoZIhvcNAQkBFhdvcGVuLXRlY2hAYmxvb21iZXJnLm5ldDAe
Fw0xNTAxMTUwNjAwMDBaFw0xNTAxMjEwNjAwMDBaMIGiMQswCQYDVQQGEwJVUzEL
MAkGA1UECBMCTlkxETAPBgNVBAcTCE5ldyBZb3JrMRUwEwYDVQQKEwxCbG9vbWJl
cmcgTFAxEzARBgNVBAsTCkNUTyBPZmZpY2UxHzAdBgNVBAMUFm1oYWNrc19zcHJp
bmdfMjAxNV8xMTcxJjAkBgkqhkiG9w0BCQEWF29wZW4tdGVjaEBibG9vbWJlcmcu
bmV0MIGfMA0GCSqGSIb3DQEBAQUAA4GNADCBiQKBgQDEaOZZI0oM3oVLbk0aYcUl
4GdZi6u1Ld5FJQi1JyBJfgjQUxg7B+xiz9smny5hm/AWW2Wjir+ZytgghwNn49/X
+2kFIZukyJ+TauIYdA83KFmc7PqYVJQxoY0ES37FsPTxCH7qzrEqqFktx5Y5Y2cr
gwUU7s0zKW2Rqi/9yr+PBwIDAQABo4IBUjCCAU4wCQYDVR0TBAIwADAtBglghkgB
hvhCAQ0EIBYeRWFzeS1SU0EgR2VuZXJhdGVkIENlcnRpZmljYXRlMB0GA1UdDgQW
BBTJ5ZrFI+fyqJlmybc/EexTv7cBgjCB0AYDVR0jBIHIMIHFgBTzIXYf2rXnA/zt
13G4HFUtfmVfFKGBoaSBnjCBmzELMAkGA1UEBhMCVVMxCzAJBgNVBAgTAk5ZMREw
DwYDVQQHEwhOZXcgWW9yazEVMBMGA1UEChMMQmxvb21iZXJnIExQMRMwEQYDVQQL
EwpDVE8gT2ZmaWNlMRgwFgYDVQQDEw9CbG9vbWJlcmcgTFAgQ0ExJjAkBgkqhkiG
9w0BCQEWF29wZW4tdGVjaEBibG9vbWJlcmcubmV0ggkAgfN6HLzG6KIwEwYDVR0l
BAwwCgYIKwYBBQUHAwIwCwYDVR0PBAQDAgeAMA0GCSqGSIb3DQEBBQUAA4GBAHWO
EeiF0N9c2m13+/oaHwM3Kx+fPpW2g/5H+wRa01DXFD6gZNka7VWdEXVhydrV9FF6
iFVYIWZW8tKACG8bemouPC/c8oSI0ow97py+FWqI9i6nBYvhs7qXfakT1XiPTKdC
s6gL9nmm/kGHIc1daHJ5tSwGI+itK7XbHON2Uyoa
-----END CERTIFICATE-----
