Certificate:
    Data:
        Version: 3 (0x2)
        Serial Number: 2533 (0x9e5)
        Signature Algorithm: sha1WithRSAEncryption
        Issuer: C=US, ST=NY, L=New York, O=Bloomberg LP, OU=CTO Office, CN=Bloomberg LP CA/emailAddress=open-tech@bloomberg.net
        Validity
            Not Before: Jan 15 06:00:00 2015 GMT
            Not After : Jan 21 06:00:00 2015 GMT
        Subject: C=US, ST=NY, L=New York, O=Bloomberg LP, OU=CTO Office, CN=mhacks_spring_2015_111/emailAddress=open-tech@bloomberg.net
        Subject Public Key Info:
            Public Key Algorithm: rsaEncryption
            RSA Public Key: (1024 bit)
                Modulus (1024 bit):
                    00:9d:c7:8e:18:f4:72:73:df:dc:fe:66:4c:91:7a:
                    e9:4a:e2:f2:50:eb:15:e7:b2:13:ec:90:03:30:83:
                    ad:ab:60:81:c8:e8:bb:b2:1d:37:cc:35:e8:0c:a5:
                    eb:5c:f9:69:39:b0:7e:9f:0b:19:63:44:13:7e:90:
                    26:df:a7:54:04:47:73:55:82:42:4e:7d:2c:01:cd:
                    a1:08:e3:e4:70:8f:e9:ed:2a:65:b8:c7:e2:59:ab:
                    a4:dd:3b:8d:59:09:48:2d:73:fa:c7:f3:31:67:a9:
                    0d:7a:ea:a4:46:4c:f0:ae:31:bf:a3:1c:1e:a5:d6:
                    63:33:ca:e3:51:0f:3a:d1:57
                Exponent: 65537 (0x10001)
        X509v3 extensions:
            X509v3 Basic Constraints: 
                CA:FALSE
            Netscape Comment: 
                Easy-RSA Generated Certificate
            X509v3 Subject Key Identifier: 
                5B:82:97:63:0E:2C:98:CE:56:DC:AF:FD:B6:3B:E5:BA:09:E1:70:8F
            X509v3 Authority Key Identifier: 
                keyid:F3:21:76:1F:DA:B5:E7:03:FC:ED:D7:71:B8:1C:55:2D:7E:65:5F:14
                DirName:/C=US/ST=NY/L=New York/O=Bloomberg LP/OU=CTO Office/CN=Bloomberg LP CA/emailAddress=open-tech@bloomberg.net
                serial:81:F3:7A:1C:BC:C6:E8:A2

            X509v3 Extended Key Usage: 
                TLS Web Client Authentication
            X509v3 Key Usage: 
                Digital Signature
    Signature Algorithm: sha1WithRSAEncryption
        7f:f6:74:f1:5d:6f:68:9f:2b:5f:24:37:1f:99:9f:4d:ec:29:
        c4:03:d6:0d:d8:75:29:61:15:0d:2f:a2:cb:9b:99:b1:3f:7f:
        6b:37:30:93:a3:85:84:30:5a:d4:ad:a5:e1:84:09:5f:b1:a3:
        7f:c1:0b:7b:bd:bc:51:0e:5d:43:16:78:c9:86:9e:af:4d:f1:
        f4:9e:ed:04:9f:01:b5:fc:29:c2:be:19:8b:39:ff:57:3e:58:
        22:63:ec:22:76:09:27:1c:9a:35:b9:36:39:3a:ee:3f:e6:32:
        cf:0f:ff:2d:9a:e8:24:ca:ad:bd:46:30:4b:d2:1f:f1:53:15:
        ab:c1
-----BEGIN CERTIFICATE-----
MIIECjCCA3OgAwIBAgICCeUwDQYJKoZIhvcNAQEFBQAwgZsxCzAJBgNVBAYTAlVT
MQswCQYDVQQIEwJOWTERMA8GA1UEBxMITmV3IFlvcmsxFTATBgNVBAoTDEJsb29t
YmVyZyBMUDETMBEGA1UECxMKQ1RPIE9mZmljZTEYMBYGA1UEAxMPQmxvb21iZXJn
IExQIENBMSYwJAYJKoZIhvcNAQkBFhdvcGVuLXRlY2hAYmxvb21iZXJnLm5ldDAe
Fw0xNTAxMTUwNjAwMDBaFw0xNTAxMjEwNjAwMDBaMIGiMQswCQYDVQQGEwJVUzEL
MAkGA1UECBMCTlkxETAPBgNVBAcTCE5ldyBZb3JrMRUwEwYDVQQKEwxCbG9vbWJl
cmcgTFAxEzARBgNVBAsTCkNUTyBPZmZpY2UxHzAdBgNVBAMUFm1oYWNrc19zcHJp
bmdfMjAxNV8xMTExJjAkBgkqhkiG9w0BCQEWF29wZW4tdGVjaEBibG9vbWJlcmcu
bmV0MIGfMA0GCSqGSIb3DQEBAQUAA4GNADCBiQKBgQCdx44Y9HJz39z+ZkyReulK
4vJQ6xXnshPskAMwg62rYIHI6LuyHTfMNegMpetc+Wk5sH6fCxljRBN+kCbfp1QE
R3NVgkJOfSwBzaEI4+Rwj+ntKmW4x+JZq6TdO41ZCUgtc/rH8zFnqQ166qRGTPCu
Mb+jHB6l1mMzyuNRDzrRVwIDAQABo4IBUjCCAU4wCQYDVR0TBAIwADAtBglghkgB
hvhCAQ0EIBYeRWFzeS1SU0EgR2VuZXJhdGVkIENlcnRpZmljYXRlMB0GA1UdDgQW
BBRbgpdjDiyYzlbcr/22O+W6CeFwjzCB0AYDVR0jBIHIMIHFgBTzIXYf2rXnA/zt
13G4HFUtfmVfFKGBoaSBnjCBmzELMAkGA1UEBhMCVVMxCzAJBgNVBAgTAk5ZMREw
DwYDVQQHEwhOZXcgWW9yazEVMBMGA1UEChMMQmxvb21iZXJnIExQMRMwEQYDVQQL
EwpDVE8gT2ZmaWNlMRgwFgYDVQQDEw9CbG9vbWJlcmcgTFAgQ0ExJjAkBgkqhkiG
9w0BCQEWF29wZW4tdGVjaEBibG9vbWJlcmcubmV0ggkAgfN6HLzG6KIwEwYDVR0l
BAwwCgYIKwYBBQUHAwIwCwYDVR0PBAQDAgeAMA0GCSqGSIb3DQEBBQUAA4GBAH/2
dPFdb2ifK18kNx+Zn03sKcQD1g3YdSlhFQ0vosubmbE/f2s3MJOjhYQwWtStpeGE
CV+xo3/BC3u9vFEOXUMWeMmGnq9N8fSe7QSfAbX8KcK+GYs5/1c+WCJj7CJ2CScc
mjW5Njk67j/mMs8P/y2a6CTKrb1GMEvSH/FTFavB
-----END CERTIFICATE-----
